; Function Attrs: mustprogress nounwind uwtable
define void @mi_collect(i1 noundef zeroext %0) local_unnamed_addr #3 personality ptr @__gxx_personality_v0 {
  %2 = tail call align 8 ptr @llvm.threadlocal.address.p0(ptr align 8 @_mi_heap_default)
  %3 = load ptr, ptr %2, align 8, !tbaa !33
  %4 = zext i1 %0 to i32
  invoke fastcc void @_ZL18mi_heap_collect_exP9mi_heap_s12mi_collect_e(ptr noundef %3, i32 noundef %4)
          to label %mi_heap_collect.exit unwind label %5

5:                                                ; preds = %1
  %6 = landingpad { ptr, i32 }
          catch ptr null
  %7 = extractvalue { ptr, i32 } %6, 0
  tail call void @__clang_call_terminate(ptr %7) #56
  unreachable

mi_heap_collect.exit:                             ; preds = %1
  ret void
}